target datalayout = "e-m:e-p270:32:32-p271:32:32-p272:64:64-i64:64-i128:128-f80:128-n8:16:32:64-S128"
target triple = "x86_64-pc-linux-gnu"

%union.pthread_mutex_t = type { %struct.__pthread_mutex_s }
%struct.__pthread_mutex_s = type { i32, i32, i32, i32, i32, i16, i16, %struct.__pthread_internal_list }
%struct.__pthread_internal_list = type { ptr, ptr }
%struct.node_features_ops = type { ptr, ptr, ptr, ptr, ptr, ptr, ptr, ptr, ptr, ptr, ptr, ptr, ptr, ptr, ptr, ptr, ptr }
%struct.timeval = type { i64, i64 }

@g_context_lock = internal global %union.pthread_mutex_t zeroinitializer, align 8
@.str.1 = private unnamed_addr constant [29 x i8] c"%s: pthread_mutex_lock(): %m\00", align 1
@g_context_cnt = internal global i32 -1, align 4
@ops = internal global ptr null, align 8
@.str.7 = private unnamed_addr constant [31 x i8] c"%s: pthread_mutex_unlock(): %m\00", align 1
@__func__.node_features_g_node_xlate2 = private unnamed_addr constant [28 x i8] c"node_features_g_node_xlate2\00", align 1

; Function Attrs: nounwind uwtable
define dso_local ptr @node_features_g_node_xlate2(ptr noundef %0) #0 {
  %2 = alloca ptr, align 8
  %3 = alloca %struct.timeval, align 8
  %4 = alloca %struct.timeval, align 8
  %5 = alloca [20 x i8], align 16
  %6 = alloca i64, align 8
  %7 = alloca ptr, align 8
  %8 = alloca ptr, align 8
  %9 = alloca i32, align 4
  %10 = alloca i32, align 4
  %11 = alloca i32, align 4
  store ptr %0, ptr %2, align 8
  call void @llvm.lifetime.start.p0(i64 16, ptr %3) #7
  call void @llvm.lifetime.start.p0(i64 16, ptr %4) #7
  call void @llvm.lifetime.start.p0(i64 20, ptr %5) #7
  call void @llvm.memset.p0.i64(ptr align 16 %5, i8 0, i64 20, i1 false)
  call void @llvm.lifetime.start.p0(i64 8, ptr %6) #7
  call void @llvm.lifetime.start.p0(i64 8, ptr %7) #7
  store ptr null, ptr %7, align 8
  call void @llvm.lifetime.start.p0(i64 8, ptr %8) #7
  call void @llvm.lifetime.start.p0(i64 4, ptr %9) #7
  %12 = call i32 @gettimeofday(ptr noundef %3, ptr noundef null) #7
  br label %13

13:                                               ; preds = %1
  call void @llvm.lifetime.start.p0(i64 4, ptr %10) #7
  %14 = call i32 @pthread_mutex_lock(ptr noundef @g_context_lock) #7
  store i32 %14, ptr %10, align 4
  %15 = load i32, ptr %10, align 4
  %16 = icmp ne i32 %15, 0
  br i1 %16, label %17, label %20

17:                                               ; preds = %13
  %18 = load i32, ptr %10, align 4
  %19 = call ptr @__errno_location() #8
  store i32 %18, ptr %19, align 4
  call void (ptr, ...) @fatal_abort(ptr noundef @.str.1, ptr noundef @__func__.node_features_g_node_xlate2) #9
  unreachable

20:                                               ; preds = %13
  call void @llvm.lifetime.end.p0(i64 4, ptr %10) #7
  br label %21

21:                                               ; preds = %20
  br label %22

22:                                               ; preds = %21
  %23 = load i32, ptr @g_context_cnt, align 4
  %24 = icmp ne i32 %23, 0
  br i1 %24, label %28, label %25

25:                                               ; preds = %22
  %26 = load ptr, ptr %2, align 8
  %27 = call ptr @xstrdup(ptr noundef %26)
  store ptr %27, ptr %7, align 8
  br label %28

28:                                               ; preds = %25, %22
  store i32 0, ptr %9, align 4
  br label %29

29:                                               ; preds = %51, %28
  %30 = load i32, ptr %9, align 4
  %31 = load i32, ptr @g_context_cnt, align 4
  %32 = icmp slt i32 %30, %31
  br i1 %32, label %33, label %54

33:                                               ; preds = %29
  %34 = load ptr, ptr %7, align 8
  %35 = icmp ne ptr %34, null
  br i1 %35, label %36, label %39

36:                                               ; preds = %33
  %37 = load ptr, ptr %7, align 8
  %38 = call ptr @xstrdup(ptr noundef %37)
  store ptr %38, ptr %8, align 8
  br label %42

39:                                               ; preds = %33
  %40 = load ptr, ptr %2, align 8
  %41 = call ptr @xstrdup(ptr noundef %40)
  store ptr %41, ptr %8, align 8
  br label %42

42:                                               ; preds = %39, %36
  %43 = load ptr, ptr @ops, align 8
  %44 = load i32, ptr %9, align 4
  %45 = sext i32 %44 to i64
  %46 = getelementptr inbounds %struct.node_features_ops, ptr %43, i64 %45
  %47 = getelementptr inbounds nuw %struct.node_features_ops, ptr %46, i32 0, i32 13
  %48 = load ptr, ptr %47, align 8
  %49 = load ptr, ptr %8, align 8
  %50 = call ptr %48(ptr noundef %49)
  store ptr %50, ptr %7, align 8
  call void @slurm_xfree(ptr noundef %8)
  br label %51

51:                                               ; preds = %42
  %52 = load i32, ptr %9, align 4
  %53 = add nsw i32 %52, 1
  store i32 %53, ptr %9, align 4
  br label %29, !llvm.loop !27

54:                                               ; preds = %29
  br label %55

55:                                               ; preds = %54
  call void @llvm.lifetime.start.p0(i64 4, ptr %11) #7
  %56 = call i32 @pthread_mutex_unlock(ptr noundef @g_context_lock) #7
  store i32 %56, ptr %11, align 4
  %57 = load i32, ptr %11, align 4
  %58 = icmp ne i32 %57, 0
  br i1 %58, label %59, label %62

59:                                               ; preds = %55
  %60 = load i32, ptr %11, align 4
  %61 = call ptr @__errno_location() #8
  store i32 %60, ptr %61, align 4
  call void (ptr, ...) @fatal_abort(ptr noundef @.str.7, ptr noundef @__func__.node_features_g_node_xlate2) #9
  unreachable

62:                                               ; preds = %55
  call void @llvm.lifetime.end.p0(i64 4, ptr %11) #7
  br label %63

63:                                               ; preds = %62
  br label %64

64:                                               ; preds = %63
  br label %65

65:                                               ; preds = %64
  %66 = call i32 @gettimeofday(ptr noundef %4, ptr noundef null) #7
  %67 = getelementptr inbounds [20 x i8], ptr %5, i64 0, i64 0
  call void @slurm_diff_tv_str(ptr noundef %3, ptr noundef %4, ptr noundef %67, i32 noundef 20, ptr noundef @__func__.node_features_g_node_xlate2, i64 noundef 0, ptr noundef %6)
  br label %68

68:                                               ; preds = %65
  br label %69

69:                                               ; preds = %68
  %70 = load ptr, ptr %7, align 8
  call void @llvm.lifetime.end.p0(i64 4, ptr %9) #7
  call void @llvm.lifetime.end.p0(i64 8, ptr %8) #7
  call void @llvm.lifetime.end.p0(i64 8, ptr %7) #7
  call void @llvm.lifetime.end.p0(i64 8, ptr %6) #7
  call void @llvm.lifetime.end.p0(i64 20, ptr %5) #7
  call void @llvm.lifetime.end.p0(i64 16, ptr %4) #7
  call void @llvm.lifetime.end.p0(i64 16, ptr %3) #7
  ret ptr %70
}