; Function Attrs: nounwind uwtable
define dso_local ptr @node_features_g_node_xlate2(ptr noundef %0) local_unnamed_addr #0 {
  %2 = alloca %struct.timeval, align 8
  %3 = alloca %struct.timeval, align 8
  %4 = alloca [20 x i8], align 16
  %5 = alloca i64, align 8
  %6 = alloca ptr, align 8
  call void @llvm.lifetime.start.p0(i64 16, ptr nonnull %2) #9
  call void @llvm.lifetime.start.p0(i64 16, ptr nonnull %3) #9
  call void @llvm.lifetime.start.p0(i64 20, ptr nonnull %4) #9
  call void @llvm.memset.p0.i64(ptr noundef nonnull align 16 dereferenceable(20) %4, i8 0, i64 20, i1 false)
  call void @llvm.lifetime.start.p0(i64 8, ptr nonnull %5) #9
  call void @llvm.lifetime.start.p0(i64 8, ptr nonnull %6) #9
  %7 = call i32 @gettimeofday(ptr noundef nonnull %2, ptr noundef null) #9
  %8 = tail call i32 @pthread_mutex_lock(ptr noundef nonnull @g_context_lock) #9
  %.not = icmp eq i32 %8, 0
  br i1 %.not, label %11, label %9

9:                                                ; preds = %1
  %10 = tail call ptr @__errno_location() #10
  store i32 %8, ptr %10, align 4
  tail call void (ptr, ...) @fatal_abort(ptr noundef nonnull @.str.1, ptr noundef nonnull @__func__.node_features_g_node_xlate2) #11
  unreachable

11:                                               ; preds = %1
  %12 = load i32, ptr @g_context_cnt, align 4
  %.not14 = icmp eq i32 %12, 0
  br i1 %.not14, label %13, label %15

13:                                               ; preds = %11
  %14 = tail call ptr @xstrdup(ptr noundef %0) #9
  %.pre = load i32, ptr @g_context_cnt, align 4
  br label %15

15:                                               ; preds = %13, %11
  %16 = phi i32 [ %12, %11 ], [ %.pre, %13 ]
  %.0 = phi ptr [ null, %11 ], [ %14, %13 ]
  %17 = icmp sgt i32 %16, 0
  br i1 %17, label %.lr.ph, label %._crit_edge

.lr.ph:                                           ; preds = %15, %.lr.ph
  %indvars.iv = phi i64 [ %indvars.iv.next, %.lr.ph ], [ 0, %15 ]
  %.118 = phi ptr [ %22, %.lr.ph ], [ %.0, %15 ]
  %.not16 = icmp eq ptr %.118, null
  %..118 = select i1 %.not16, ptr %0, ptr %.118
  %18 = call ptr @xstrdup(ptr noundef %..118) #9
  store ptr %18, ptr %6, align 8
  %19 = load ptr, ptr @ops, align 8
  %20 = getelementptr inbounds nuw %struct.node_features_ops, ptr %19, i64 %indvars.iv, i32 13
  %21 = load ptr, ptr %20, align 8
  %22 = call ptr %21(ptr noundef %18) #9
  call void @slurm_xfree(ptr noundef nonnull %6) #9
  %indvars.iv.next = add nuw nsw i64 %indvars.iv, 1
  %23 = load i32, ptr @g_context_cnt, align 4
  %24 = sext i32 %23 to i64
  %25 = icmp slt i64 %indvars.iv.next, %24
  br i1 %25, label %.lr.ph, label %._crit_edge, !llvm.loop !25

._crit_edge:                                      ; preds = %.lr.ph, %15
  %.1.lcssa = phi ptr [ %.0, %15 ], [ %22, %.lr.ph ]
  %26 = call i32 @pthread_mutex_unlock(ptr noundef nonnull @g_context_lock) #9
  %.not15 = icmp eq i32 %26, 0
  br i1 %.not15, label %29, label %27

27:                                               ; preds = %._crit_edge
  %28 = tail call ptr @__errno_location() #10
  store i32 %26, ptr %28, align 4
  call void (ptr, ...) @fatal_abort(ptr noundef nonnull @.str.7, ptr noundef nonnull @__func__.node_features_g_node_xlate2) #11
  unreachable

29:                                               ; preds = %._crit_edge
  %30 = call i32 @gettimeofday(ptr noundef nonnull %3, ptr noundef null) #9
  call void @slurm_diff_tv_str(ptr noundef nonnull %2, ptr noundef nonnull %3, ptr noundef nonnull %4, i32 noundef 20, ptr noundef nonnull @__func__.node_features_g_node_xlate2, i64 noundef 0, ptr noundef nonnull %5) #9
  call void @llvm.lifetime.end.p0(i64 8, ptr nonnull %6) #9
  call void @llvm.lifetime.end.p0(i64 8, ptr nonnull %5) #9
  call void @llvm.lifetime.end.p0(i64 20, ptr nonnull %4) #9
  call void @llvm.lifetime.end.p0(i64 16, ptr nonnull %3) #9
  call void @llvm.lifetime.end.p0(i64 16, ptr nonnull %2) #9
  ret ptr %.1.lcssa
}